; Function Attrs: nounwind uwtable
define dso_local void @MarkPortalFailed(ptr noundef initializes((128, 132)) %0) local_unnamed_addr #0 {
  %2 = getelementptr inbounds nuw i8, ptr %0, i64 128
  store i32 5, ptr %2, align 8
  %3 = getelementptr inbounds nuw i8, ptr %0, i64 32
  %4 = load ptr, ptr %3, align 8
  %.not = icmp eq ptr %4, null
  br i1 %.not, label %6, label %5

5:                                                ; preds = %1
  tail call void %4(ptr noundef nonnull %0) #8
  store ptr null, ptr %3, align 8
  br label %6

6:                                                ; preds = %5, %1
  ret void
}